; Function Attrs: mustprogress uwtable
define noundef ptr @ucal_getType_75(ptr noundef %cal, ptr nocapture noundef readonly %status) local_unnamed_addr #1 {
entry:
  %0 = load i32, ptr %status, align 4
  %cmp.i = icmp slt i32 %0, 1
  br i1 %cmp.i, label %if.end, label %return

if.end:                                           ; preds = %entry
  %vtable = load ptr, ptr %cal, align 8
  %vfn = getelementptr inbounds i8, ptr %vtable, i64 184
  %1 = load ptr, ptr %vfn, align 8
  %call1 = tail call noundef ptr %1(ptr noundef nonnull align 8 dereferenceable(618) %cal)
  br label %return

return:                                           ; preds = %entry, %if.end
  %retval.0 = phi ptr [ %call1, %if.end ], [ null, %entry ]
  ret ptr %retval.0
}